target datalayout = "e-m:e-p270:32:32-p271:32:32-p272:64:64-i64:64-i128:128-f80:128-n8:16:32:64-S128"
target triple = "x86_64-pc-linux-gnu"

%"class.folly::symbolizer::ElfFile" = type { [512 x i8], i32, ptr, i64, %"struct.folly::symbolizer::ElfFileId", i64 }
%"struct.folly::symbolizer::ElfFileId" = type { i64, i64, i64, i64 }

; Function Attrs: mustprogress nounwind uwtable
define void @_ZN5folly10symbolizer7ElfFile5resetEv(ptr noundef nonnull align 8 dereferenceable(576) %0) #0 align 2 personality ptr @__gxx_personality_v0 {
  %2 = alloca ptr, align 8
  %3 = alloca %"struct.folly::symbolizer::ElfFileId", align 8
  store ptr %0, ptr %2, align 8, !tbaa !7
  %4 = load ptr, ptr %2, align 8
  %5 = getelementptr inbounds nuw %"class.folly::symbolizer::ElfFile", ptr %4, i32 0, i32 0
  %6 = getelementptr inbounds [512 x i8], ptr %5, i64 0, i64 0
  store i8 0, ptr %6, align 8, !tbaa !12
  %7 = getelementptr inbounds nuw %"class.folly::symbolizer::ElfFile", ptr %4, i32 0, i32 2
  %8 = load ptr, ptr %7, align 8, !tbaa !19
  %9 = icmp ne ptr %8, inttoptr (i64 -1 to ptr)
  br i1 %9, label %10, label %17

10:                                               ; preds = %1
  %11 = getelementptr inbounds nuw %"class.folly::symbolizer::ElfFile", ptr %4, i32 0, i32 2
  %12 = load ptr, ptr %11, align 8, !tbaa !19
  %13 = getelementptr inbounds nuw %"class.folly::symbolizer::ElfFile", ptr %4, i32 0, i32 3
  %14 = load i64, ptr %13, align 8, !tbaa !20
  %15 = call i32 @munmap(ptr noundef %12, i64 noundef %14) #24
  %16 = getelementptr inbounds nuw %"class.folly::symbolizer::ElfFile", ptr %4, i32 0, i32 2
  store ptr inttoptr (i64 -1 to ptr), ptr %16, align 8, !tbaa !19
  br label %17

17:                                               ; preds = %10, %1
  %18 = getelementptr inbounds nuw %"class.folly::symbolizer::ElfFile", ptr %4, i32 0, i32 1
  %19 = load i32, ptr %18, align 8, !tbaa !13
  %20 = icmp ne i32 %19, -1
  br i1 %20, label %21, label %27

21:                                               ; preds = %17
  %22 = getelementptr inbounds nuw %"class.folly::symbolizer::ElfFile", ptr %4, i32 0, i32 1
  %23 = load i32, ptr %22, align 8, !tbaa !13
  %24 = invoke i32 @close(i32 noundef %23)
          to label %25 unwind label %29

25:                                               ; preds = %21
  %26 = getelementptr inbounds nuw %"class.folly::symbolizer::ElfFile", ptr %4, i32 0, i32 1
  store i32 -1, ptr %26, align 8, !tbaa !13
  br label %27

27:                                               ; preds = %25, %17
  call void @llvm.lifetime.start.p0(i64 32, ptr %3) #24
  call void @llvm.memset.p0.i64(ptr align 8 %3, i8 0, i64 32, i1 false)
  %28 = getelementptr inbounds nuw %"class.folly::symbolizer::ElfFile", ptr %4, i32 0, i32 4
  call void @llvm.memcpy.p0.p0.i64(ptr align 8 %28, ptr align 8 %3, i64 32, i1 false), !tbaa.struct !45
  call void @llvm.lifetime.end.p0(i64 32, ptr %3) #24
  ret void

29:                                               ; preds = %21
  %30 = landingpad { ptr, i32 }
          catch ptr null
  %31 = extractvalue { ptr, i32 } %30, 0
  call void @__clang_call_terminate(ptr %31) #26
  unreachable
}

; Function Attrs: mustprogress nounwind uwtable
define noundef nonnull align 8 dereferenceable(576) ptr @_ZN5folly10symbolizer7ElfFileaSEOS1_(ptr noundef nonnull align 8 dereferenceable(576) %0, ptr noundef nonnull align 8 dereferenceable(576) %1) #0 align 2 personality ptr @__gxx_personality_v0 {
  %3 = alloca ptr, align 8
  %4 = alloca ptr, align 8
  %5 = alloca %"struct.folly::symbolizer::ElfFileId", align 8
  store ptr %0, ptr %3, align 8, !tbaa !7
  store ptr %1, ptr %4, align 8, !tbaa !7
  %6 = load ptr, ptr %3, align 8
  call void @_ZN5folly10symbolizer7ElfFile5resetEv(ptr noundef nonnull align 8 dereferenceable(576) %6) #24
  %7 = getelementptr inbounds nuw %"class.folly::symbolizer::ElfFile", ptr %6, i32 0, i32 0
  %8 = getelementptr inbounds [512 x i8], ptr %7, i64 0, i64 0
  %9 = load ptr, ptr %4, align 8, !tbaa !7
  %10 = getelementptr inbounds nuw %"class.folly::symbolizer::ElfFile", ptr %9, i32 0, i32 0
  %11 = getelementptr inbounds [512 x i8], ptr %10, i64 0, i64 0
  %12 = invoke noundef i64 @_ZN5folly7strlcpyEPcPKcm(ptr noundef %8, ptr noundef %11, i64 noundef 511)
          to label %13 unwind label %46

13:                                               ; preds = %2
  %14 = load ptr, ptr %4, align 8, !tbaa !7
  %15 = getelementptr inbounds nuw %"class.folly::symbolizer::ElfFile", ptr %14, i32 0, i32 1
  %16 = load i32, ptr %15, align 8, !tbaa !13
  %17 = getelementptr inbounds nuw %"class.folly::symbolizer::ElfFile", ptr %6, i32 0, i32 1
  store i32 %16, ptr %17, align 8, !tbaa !13
  %18 = load ptr, ptr %4, align 8, !tbaa !7
  %19 = getelementptr inbounds nuw %"class.folly::symbolizer::ElfFile", ptr %18, i32 0, i32 2
  %20 = load ptr, ptr %19, align 8, !tbaa !19
  %21 = getelementptr inbounds nuw %"class.folly::symbolizer::ElfFile", ptr %6, i32 0, i32 2
  store ptr %20, ptr %21, align 8, !tbaa !19
  %22 = load ptr, ptr %4, align 8, !tbaa !7
  %23 = getelementptr inbounds nuw %"class.folly::symbolizer::ElfFile", ptr %22, i32 0, i32 3
  %24 = load i64, ptr %23, align 8, !tbaa !20
  %25 = getelementptr inbounds nuw %"class.folly::symbolizer::ElfFile", ptr %6, i32 0, i32 3
  store i64 %24, ptr %25, align 8, !tbaa !20
  %26 = load ptr, ptr %4, align 8, !tbaa !7
  %27 = getelementptr inbounds nuw %"class.folly::symbolizer::ElfFile", ptr %26, i32 0, i32 4
  %28 = getelementptr inbounds nuw %"class.folly::symbolizer::ElfFile", ptr %6, i32 0, i32 4
  call void @llvm.memcpy.p0.p0.i64(ptr align 8 %28, ptr align 8 %27, i64 32, i1 false), !tbaa.struct !45
  %29 = load ptr, ptr %4, align 8, !tbaa !7
  %30 = getelementptr inbounds nuw %"class.folly::symbolizer::ElfFile", ptr %29, i32 0, i32 5
  %31 = load i64, ptr %30, align 8, !tbaa !21
  %32 = getelementptr inbounds nuw %"class.folly::symbolizer::ElfFile", ptr %6, i32 0, i32 5
  store i64 %31, ptr %32, align 8, !tbaa !21
  %33 = load ptr, ptr %4, align 8, !tbaa !7
  %34 = getelementptr inbounds nuw %"class.folly::symbolizer::ElfFile", ptr %33, i32 0, i32 0
  %35 = getelementptr inbounds [512 x i8], ptr %34, i64 0, i64 0
  store i8 0, ptr %35, align 8, !tbaa !12
  %36 = load ptr, ptr %4, align 8, !tbaa !7
  %37 = getelementptr inbounds nuw %"class.folly::symbolizer::ElfFile", ptr %36, i32 0, i32 1
  store i32 -1, ptr %37, align 8, !tbaa !13
  %38 = load ptr, ptr %4, align 8, !tbaa !7
  %39 = getelementptr inbounds nuw %"class.folly::symbolizer::ElfFile", ptr %38, i32 0, i32 2
  store ptr inttoptr (i64 -1 to ptr), ptr %39, align 8, !tbaa !19
  %40 = load ptr, ptr %4, align 8, !tbaa !7
  %41 = getelementptr inbounds nuw %"class.folly::symbolizer::ElfFile", ptr %40, i32 0, i32 3
  store i64 0, ptr %41, align 8, !tbaa !20
  call void @llvm.lifetime.start.p0(i64 32, ptr %5) #24
  call void @llvm.memset.p0.i64(ptr align 8 %5, i8 0, i64 32, i1 false)
  %42 = load ptr, ptr %4, align 8, !tbaa !7
  %43 = getelementptr inbounds nuw %"class.folly::symbolizer::ElfFile", ptr %42, i32 0, i32 4
  call void @llvm.memcpy.p0.p0.i64(ptr align 8 %43, ptr align 8 %5, i64 32, i1 false), !tbaa.struct !45
  call void @llvm.lifetime.end.p0(i64 32, ptr %5) #24
  %44 = load ptr, ptr %4, align 8, !tbaa !7
  %45 = getelementptr inbounds nuw %"class.folly::symbolizer::ElfFile", ptr %44, i32 0, i32 5
  store i64 0, ptr %45, align 8, !tbaa !21
  ret ptr %6

46:                                               ; preds = %2
  %47 = landingpad { ptr, i32 }
          catch ptr null
  %48 = extractvalue { ptr, i32 } %47, 0
  call void @__clang_call_terminate(ptr %48) #26
  unreachable
}