; Function Attrs: mustprogress nounwind uwtable
define noundef nonnull align 8 dereferenceable(576) ptr @_ZN5folly10symbolizer7ElfFileaSEOS1_(ptr noundef nonnull returned align 8 dereferenceable(576) initializes((0, 1)) %0, ptr noundef nonnull align 8 dereferenceable(576) %1) local_unnamed_addr #4 align 2 personality ptr @__gxx_personality_v0 {
  store i8 0, ptr %0, align 8, !tbaa !7
  %3 = getelementptr inbounds nuw i8, ptr %0, i64 520
  %4 = load ptr, ptr %3, align 8, !tbaa !17
  %.not.i = icmp eq ptr %4, inttoptr (i64 -1 to ptr)
  br i1 %.not.i, label %9, label %5

5:                                                ; preds = %2
  %6 = getelementptr inbounds nuw i8, ptr %0, i64 528
  %7 = load i64, ptr %6, align 8, !tbaa !39
  %8 = tail call i32 @munmap(ptr noundef %4, i64 noundef %7) #27
  store ptr inttoptr (i64 -1 to ptr), ptr %3, align 8, !tbaa !17
  br label %9

9:                                                ; preds = %5, %2
  %10 = getelementptr inbounds nuw i8, ptr %0, i64 512
  %11 = load i32, ptr %10, align 8, !tbaa !10
  %.not2.i = icmp eq i32 %11, -1
  br i1 %.not2.i, label %_ZN5folly10symbolizer7ElfFile5resetEv.exit, label %12

12:                                               ; preds = %9
  %13 = invoke i32 @close(i32 noundef %11)
          to label %14 unwind label %15

14:                                               ; preds = %12
  store i32 -1, ptr %10, align 8, !tbaa !10
  br label %_ZN5folly10symbolizer7ElfFile5resetEv.exit

15:                                               ; preds = %12
  %16 = landingpad { ptr, i32 }
          catch ptr null
  %17 = extractvalue { ptr, i32 } %16, 0
  tail call void @__clang_call_terminate(ptr %17) #29
  unreachable

_ZN5folly10symbolizer7ElfFile5resetEv.exit:       ; preds = %9, %14
  %18 = getelementptr inbounds nuw i8, ptr %0, i64 536
  tail call void @llvm.memset.p0.i64(ptr noundef nonnull align 8 dereferenceable(32) %18, i8 0, i64 32, i1 false)
  %19 = invoke noundef i64 @_ZN5folly7strlcpyEPcPKcm(ptr noundef nonnull %0, ptr noundef nonnull %1, i64 noundef 511)
          to label %20 unwind label %32

20:                                               ; preds = %_ZN5folly10symbolizer7ElfFile5resetEv.exit
  %21 = getelementptr inbounds nuw i8, ptr %1, i64 512
  %22 = load i32, ptr %21, align 8, !tbaa !10
  store i32 %22, ptr %10, align 8, !tbaa !10
  %23 = getelementptr inbounds nuw i8, ptr %1, i64 520
  %24 = load ptr, ptr %23, align 8, !tbaa !17
  store ptr %24, ptr %3, align 8, !tbaa !17
  %25 = getelementptr inbounds nuw i8, ptr %1, i64 528
  %26 = load i64, ptr %25, align 8, !tbaa !39
  %27 = getelementptr inbounds nuw i8, ptr %0, i64 528
  store i64 %26, ptr %27, align 8, !tbaa !39
  %28 = getelementptr inbounds nuw i8, ptr %1, i64 536
  tail call void @llvm.memcpy.p0.p0.i64(ptr noundef nonnull align 8 dereferenceable(32) %18, ptr noundef nonnull align 8 dereferenceable(32) %28, i64 32, i1 false), !tbaa.struct !84
  %29 = getelementptr inbounds nuw i8, ptr %1, i64 568
  %30 = load i64, ptr %29, align 8, !tbaa !74
  %31 = getelementptr inbounds nuw i8, ptr %0, i64 568
  store i64 %30, ptr %31, align 8, !tbaa !74
  store i8 0, ptr %1, align 8, !tbaa !7
  store i32 -1, ptr %21, align 8, !tbaa !10
  store ptr inttoptr (i64 -1 to ptr), ptr %23, align 8, !tbaa !17
  store i64 0, ptr %25, align 8, !tbaa !39
  tail call void @llvm.memset.p0.i64(ptr noundef nonnull align 8 dereferenceable(32) %28, i8 0, i64 32, i1 false)
  store i64 0, ptr %29, align 8, !tbaa !74
  ret ptr %0

32:                                               ; preds = %_ZN5folly10symbolizer7ElfFile5resetEv.exit
  %33 = landingpad { ptr, i32 }
          catch ptr null
  %34 = extractvalue { ptr, i32 } %33, 0
  tail call void @__clang_call_terminate(ptr %34) #29
  unreachable
}